target datalayout = "e-m:e-p270:32:32-p271:32:32-p272:64:64-i64:64-i128:128-f80:128-n8:16:32:64-S128"
target triple = "x86_64-unknown-linux-gnu"

%"class.std::ios_base::Init" = type { i8 }
%"class.std::basic_ostream" = type { ptr, %"class.std::basic_ios" }
%"class.std::basic_ios" = type { %"class.std::ios_base", ptr, i8, i8, ptr, ptr, ptr, ptr }
%"class.std::ios_base" = type { ptr, i64, i64, i32, i32, i32, ptr, %"struct.std::ios_base::_Words", [8 x %"struct.std::ios_base::_Words"], i32, ptr, %"class.std::locale" }
%"struct.std::ios_base::_Words" = type { ptr, i64 }
%"class.std::locale" = type { ptr }
%"class.QuantLib::detail::Tracing" = type { ptr, i8, i32 }

@_ZStL8__ioinit = internal global %"class.std::ios_base::Init" zeroinitializer, align 1
@__dso_handle = external hidden global i8
@_ZSt4cerr = external global %"class.std::basic_ostream", align 8
@llvm.global_ctors = appending global [1 x { i32, ptr, ptr }] [{ i32, ptr, ptr } { i32 65535, ptr @_GLOBAL__sub_I_tracing.cpp, ptr null }]

@_ZN8QuantLib6detail7TracingC1Ev = unnamed_addr alias void (ptr), ptr @_ZN8QuantLib6detail7TracingC2Ev

; Function Attrs: uwtable
define internal void @__cxx_global_var_init() #0 section ".text.startup" {
entry:
  call void @_ZNSt8ios_base4InitC1Ev(ptr noundef nonnull align 1 dereferenceable(1) @_ZStL8__ioinit)
  %0 = call i32 @__cxa_atexit(ptr @_ZNSt8ios_base4InitD1Ev, ptr @_ZStL8__ioinit, ptr @__dso_handle) #3
  ret void
}

declare void @_ZNSt8ios_base4InitC1Ev(ptr noundef nonnull align 1 dereferenceable(1)) unnamed_addr #1

; Function Attrs: nounwind
declare void @_ZNSt8ios_base4InitD1Ev(ptr noundef nonnull align 1 dereferenceable(1)) unnamed_addr #2

; Function Attrs: nounwind
declare i32 @__cxa_atexit(ptr, ptr, ptr) #3

; Function Attrs: mustprogress nounwind uwtable
define void @_ZN8QuantLib6detail7TracingC2Ev(ptr noundef nonnull align 8 dereferenceable(16) %this) unnamed_addr #4 align 2 {
entry:
  %this.addr = alloca ptr, align 8
  store ptr %this, ptr %this.addr, align 8, !tbaa !3
  %this1 = load ptr, ptr %this.addr, align 8
  %out_ = getelementptr inbounds nuw %"class.QuantLib::detail::Tracing", ptr %this1, i32 0, i32 0
  store ptr @_ZSt4cerr, ptr %out_, align 8, !tbaa !7
  %enabled_ = getelementptr inbounds nuw %"class.QuantLib::detail::Tracing", ptr %this1, i32 0, i32 1
  store i8 0, ptr %enabled_, align 8, !tbaa !11
  %depth_ = getelementptr inbounds nuw %"class.QuantLib::detail::Tracing", ptr %this1, i32 0, i32 2
  store i32 0, ptr %depth_, align 4, !tbaa !12
  ret void
}

; Function Attrs: uwtable
define internal void @_GLOBAL__sub_I_tracing.cpp() #0 section ".text.startup" {
entry:
  call void @__cxx_global_var_init()
  ret void
}


!llvm.module.flags = !{!0, !1, !2}

!0 = !{i32 1, !"wchar_size", i32 4}
!1 = !{i32 8, !"PIC Level", i32 2}
!2 = !{i32 7, !"uwtable", i32 2}
!3 = !{!4, !4, i64 0}
!4 = !{!"any pointer", !5, i64 0}
!5 = !{!"omnipotent char", !6, i64 0}
!6 = !{!"Simple C++ TBAA"}
!7 = !{!8, !4, i64 0}
!8 = !{!"_ZTSN8QuantLib6detail7TracingE", !4, i64 0, !9, i64 8, !10, i64 12}
!9 = !{!"bool", !5, i64 0}
!10 = !{!"int", !5, i64 0}
!11 = !{!8, !9, i64 8}
!12 = !{!8, !10, i64 12}
